target datalayout = "e-m:e-p270:32:32-p271:32:32-p272:64:64-i64:64-i128:128-f80:128-n8:16:32:64-S128"
target triple = "x86_64-pc-linux-gnu"

%class.btDefaultCollisionConfiguration = type { %class.btCollisionConfiguration, i32, ptr, i8, ptr, i8, ptr, ptr, ptr, ptr, ptr, ptr, ptr, ptr, ptr, ptr, ptr, ptr, ptr, ptr, ptr, ptr }
%class.btCollisionConfiguration = type { ptr }
%"struct.btConvexPlaneCollisionAlgorithm::CreateFunc" = type { %struct.btCollisionAlgorithmCreateFunc.base, i32, i32, [4 x i8] }
%struct.btCollisionAlgorithmCreateFunc.base = type <{ ptr, i8 }>

; Function Attrs: mustprogress nounwind uwtable
define dso_local void @_ZN31btDefaultCollisionConfiguration34setPlaneConvexMultipointIterationsEii(ptr noundef nonnull align 8 dereferenceable(176) %0, i32 noundef %1, i32 noundef %2) #1 align 2 {
  %4 = alloca ptr, align 8
  %5 = alloca i32, align 4
  %6 = alloca i32, align 4
  %7 = alloca ptr, align 8
  %8 = alloca ptr, align 8
  store ptr %0, ptr %4, align 8, !tbaa !12
  store i32 %1, ptr %5, align 4, !tbaa !9
  store i32 %2, ptr %6, align 4, !tbaa !9
  %9 = load ptr, ptr %4, align 8
  call void @llvm.lifetime.start.p0(i64 8, ptr %7) #10
  %10 = getelementptr inbounds nuw %class.btDefaultCollisionConfiguration, ptr %9, i32 0, i32 21
  %11 = load ptr, ptr %10, align 8, !tbaa !41
  store ptr %11, ptr %7, align 8, !tbaa !75
  %12 = load i32, ptr %5, align 4, !tbaa !9
  %13 = load ptr, ptr %7, align 8, !tbaa !75
  %14 = getelementptr inbounds nuw %"struct.btConvexPlaneCollisionAlgorithm::CreateFunc", ptr %13, i32 0, i32 1
  store i32 %12, ptr %14, align 4, !tbaa !77
  %15 = load i32, ptr %6, align 4, !tbaa !9
  %16 = load ptr, ptr %7, align 8, !tbaa !75
  %17 = getelementptr inbounds nuw %"struct.btConvexPlaneCollisionAlgorithm::CreateFunc", ptr %16, i32 0, i32 2
  store i32 %15, ptr %17, align 8, !tbaa !79
  call void @llvm.lifetime.start.p0(i64 8, ptr %8) #10
  %18 = getelementptr inbounds nuw %class.btDefaultCollisionConfiguration, ptr %9, i32 0, i32 20
  %19 = load ptr, ptr %18, align 8, !tbaa !42
  store ptr %19, ptr %8, align 8, !tbaa !75
  %20 = load i32, ptr %5, align 4, !tbaa !9
  %21 = load ptr, ptr %8, align 8, !tbaa !75
  %22 = getelementptr inbounds nuw %"struct.btConvexPlaneCollisionAlgorithm::CreateFunc", ptr %21, i32 0, i32 1
  store i32 %20, ptr %22, align 4, !tbaa !77
  %23 = load i32, ptr %6, align 4, !tbaa !9
  %24 = load ptr, ptr %8, align 8, !tbaa !75
  %25 = getelementptr inbounds nuw %"struct.btConvexPlaneCollisionAlgorithm::CreateFunc", ptr %24, i32 0, i32 2
  store i32 %23, ptr %25, align 8, !tbaa !79
  call void @llvm.lifetime.end.p0(i64 8, ptr %8) #10
  call void @llvm.lifetime.end.p0(i64 8, ptr %7) #10
  ret void
}