; Function Attrs: mustprogress nofree norecurse nosync nounwind willreturn memory(write, argmem: readwrite, inaccessiblemem: none) uwtable
define dso_local void @_ZN31btDefaultCollisionConfiguration34setPlaneConvexMultipointIterationsEii(ptr noundef nonnull readonly align 8 captures(none) dereferenceable(176) %0, i32 noundef %1, i32 noundef %2) local_unnamed_addr #7 align 2 {
  %4 = getelementptr inbounds nuw i8, ptr %0, i64 168
  %5 = load ptr, ptr %4, align 8, !tbaa !35
  %6 = getelementptr inbounds nuw i8, ptr %5, i64 12
  store i32 %1, ptr %6, align 4, !tbaa !32
  %7 = getelementptr inbounds nuw i8, ptr %5, i64 16
  store i32 %2, ptr %7, align 8, !tbaa !34
  %8 = getelementptr inbounds nuw i8, ptr %0, i64 160
  %9 = load ptr, ptr %8, align 8, !tbaa !36
  %10 = getelementptr inbounds nuw i8, ptr %9, i64 12
  store i32 %1, ptr %10, align 4, !tbaa !32
  %11 = getelementptr inbounds nuw i8, ptr %9, i64 16
  store i32 %2, ptr %11, align 8, !tbaa !34
  ret void
}